target datalayout = "e-m:e-p270:32:32-p271:32:32-p272:64:64-i64:64-i128:128-f80:128-n8:16:32:64-S128"
target triple = "x86_64-pc-linux-gnu"

%struct.ident_t = type { i32, i32, i32, i32, ptr }
%"class.std::__cxx11::basic_string" = type { %"struct.std::__cxx11::basic_string<char>::_Alloc_hider", i64, %union.anon }
%"struct.std::__cxx11::basic_string<char>::_Alloc_hider" = type { ptr }
%union.anon = type { i64, [8 x i8] }
%"struct.faiss::AdditiveQuantizer" = type <{ %"struct.faiss::Quantizer", i64, %"class.std::vector", %"class.std::vector.0", %"class.std::vector", i64, i64, i64, i8, i8, i8, [5 x i8], %"struct.faiss::IndexFlat1D", %"class.std::vector.0", i64, i32, float, float, [4 x i8] }>
%"struct.faiss::Quantizer" = type { ptr, i64, i64 }
%"class.std::vector" = type { %"struct.std::_Vector_base" }
%"struct.std::_Vector_base" = type { %"struct.std::_Vector_base<unsigned long, std::allocator<unsigned long>>::_Vector_impl" }
%"struct.std::_Vector_base<unsigned long, std::allocator<unsigned long>>::_Vector_impl" = type { %"struct.std::_Vector_base<unsigned long, std::allocator<unsigned long>>::_Vector_impl_data" }
%"struct.std::_Vector_base<unsigned long, std::allocator<unsigned long>>::_Vector_impl_data" = type { ptr, ptr, ptr }
%"struct.faiss::IndexFlat1D" = type { %"struct.faiss::IndexFlatL2", i8, %"class.std::vector.10" }
%"struct.faiss::IndexFlatL2" = type { %"struct.faiss::IndexFlat", %"class.std::vector.0" }
%"struct.faiss::IndexFlat" = type { %"struct.faiss::IndexFlatCodes" }
%"struct.faiss::IndexFlatCodes" = type { %"struct.faiss::Index.base", i64, %"class.std::vector.5" }
%"struct.faiss::Index.base" = type <{ ptr, i32, [4 x i8], i64, i8, i8, [2 x i8], i32, float }>
%"class.std::vector.5" = type { %"struct.std::_Vector_base.6" }
%"struct.std::_Vector_base.6" = type { %"struct.std::_Vector_base<unsigned char, std::allocator<unsigned char>>::_Vector_impl" }
%"struct.std::_Vector_base<unsigned char, std::allocator<unsigned char>>::_Vector_impl" = type { %"struct.std::_Vector_base<unsigned char, std::allocator<unsigned char>>::_Vector_impl_data" }
%"struct.std::_Vector_base<unsigned char, std::allocator<unsigned char>>::_Vector_impl_data" = type { ptr, ptr, ptr }
%"class.std::vector.10" = type { %"struct.std::_Vector_base.11" }
%"struct.std::_Vector_base.11" = type { %"struct.std::_Vector_base<long, std::allocator<long>>::_Vector_impl" }
%"struct.std::_Vector_base<long, std::allocator<long>>::_Vector_impl" = type { %"struct.std::_Vector_base<long, std::allocator<long>>::_Vector_impl_data" }
%"struct.std::_Vector_base<long, std::allocator<long>>::_Vector_impl_data" = type { ptr, ptr, ptr }
%"class.std::vector.0" = type { %"struct.std::_Vector_base.1" }
%"struct.std::_Vector_base.1" = type { %"struct.std::_Vector_base<float, std::allocator<float>>::_Vector_impl" }
%"struct.std::_Vector_base<float, std::allocator<float>>::_Vector_impl" = type { %"struct.std::_Vector_base<float, std::allocator<float>>::_Vector_impl_data" }
%"struct.std::_Vector_base<float, std::allocator<float>>::_Vector_impl_data" = type { ptr, ptr, ptr }

@.str.3 = private unnamed_addr constant [122 x i8] c"generated/home/dtcxzyw/WorkSpace/Projects/compilers/llvm-opt-benchmark/bench/faiss/faiss/faiss/impl/AdditiveQuantizer.cpp\00", align 1
@_ZTIN5faiss14FaissExceptionE = external constant ptr
@2 = private unnamed_addr constant %struct.ident_t { i32 0, i32 2, i32 0, i32 22, ptr @0 }, align 8
@.str.7 = private unnamed_addr constant [63 x i8] c"Error: '%s' failed: The additive quantizer is not trained yet.\00", align 1
@.str.8 = private unnamed_addr constant [11 x i8] c"is_trained\00", align 1
@__PRETTY_FUNCTION__._ZNK5faiss17AdditiveQuantizer15decode_unpackedEPKiPfml = private unnamed_addr constant [104 x i8] c"virtual void faiss::AdditiveQuantizer::decode_unpacked(const int32_t *, float *, size_t, int64_t) const\00", align 1

; Function Attrs: mustprogress uwtable
define void @_ZNK5faiss17AdditiveQuantizer15decode_unpackedEPKiPfml(ptr noundef nonnull align 8 dereferenceable(308) %0, ptr noundef %1, ptr noundef %2, i64 noundef %3, i64 noundef %4) unnamed_addr #0 align 2 personality ptr @__gxx_personality_v0 {
  %6 = alloca ptr, align 8
  %7 = alloca ptr, align 8
  %8 = alloca ptr, align 8
  %9 = alloca i64, align 8
  %10 = alloca i64, align 8
  %11 = alloca %"class.std::__cxx11::basic_string", align 8
  %12 = alloca i32, align 4
  %13 = alloca ptr, align 8
  %14 = alloca i32, align 4
  %15 = alloca i32, align 4
  %16 = alloca i32, align 4
  %17 = call i32 @__kmpc_global_thread_num(ptr @2)
  store ptr %0, ptr %6, align 8
  store ptr %1, ptr %7, align 8
  store ptr %2, ptr %8, align 8
  store i64 %3, ptr %9, align 8
  store i64 %4, ptr %10, align 8
  %18 = load ptr, ptr %6, align 8
  br label %19

19:                                               ; preds = %5
  %20 = getelementptr inbounds %"struct.faiss::AdditiveQuantizer", ptr %18, i32 0, i32 10
  %21 = load i8, ptr %20, align 2
  %22 = trunc i8 %21 to i1
  br i1 %22, label %46, label %23

23:                                               ; preds = %19
  br label %24

24:                                               ; preds = %23
  call void @_ZNSt7__cxx1112basic_stringIcSt11char_traitsIcESaIcEEC1Ev(ptr noundef nonnull align 8 dereferenceable(32) %11) #13
  %25 = call i32 (ptr, i64, ptr, ...) @snprintf(ptr noundef null, i64 noundef 0, ptr noundef @.str.7, ptr noundef @.str.8) #13
  store i32 %25, ptr %12, align 4
  %26 = load i32, ptr %12, align 4
  %27 = add nsw i32 %26, 1
  %28 = sext i32 %27 to i64
  invoke void @_ZNSt7__cxx1112basic_stringIcSt11char_traitsIcESaIcEE6resizeEm(ptr noundef nonnull align 8 dereferenceable(32) %11, i64 noundef %28)
          to label %29 unwind label %36

29:                                               ; preds = %24
  %30 = invoke noundef nonnull align 1 dereferenceable(1) ptr @_ZNSt7__cxx1112basic_stringIcSt11char_traitsIcESaIcEEixEm(ptr noundef nonnull align 8 dereferenceable(32) %11, i64 noundef 0)
          to label %31 unwind label %36

31:                                               ; preds = %29
  %32 = call noundef i64 @_ZNKSt7__cxx1112basic_stringIcSt11char_traitsIcESaIcEE4sizeEv(ptr noundef nonnull align 8 dereferenceable(32) %11) #13
  %33 = call i32 (ptr, i64, ptr, ...) @snprintf(ptr noundef %30, i64 noundef %32, ptr noundef @.str.7, ptr noundef @.str.8) #13
  %34 = call ptr @__cxa_allocate_exception(i64 40) #13
  invoke void @_ZN5faiss14FaissExceptionC1ERKNSt7__cxx1112basic_stringIcSt11char_traitsIcESaIcEEEPKcSA_i(ptr noundef nonnull align 8 dereferenceable(40) %34, ptr noundef nonnull align 8 dereferenceable(32) %11, ptr noundef @__PRETTY_FUNCTION__._ZNK5faiss17AdditiveQuantizer15decode_unpackedEPKiPfml, ptr noundef @.str.3, i32 noundef 286)
          to label %35 unwind label %40

35:                                               ; preds = %31
  invoke void @__cxa_throw(ptr %34, ptr @_ZTIN5faiss14FaissExceptionE, ptr @_ZN5faiss14FaissExceptionD2Ev) #15
          to label %64 unwind label %36

36:                                               ; preds = %35, %29, %24
  %37 = landingpad { ptr, i32 }
          cleanup
  %38 = extractvalue { ptr, i32 } %37, 0
  store ptr %38, ptr %13, align 8
  %39 = extractvalue { ptr, i32 } %37, 1
  store i32 %39, ptr %14, align 4
  br label %44

40:                                               ; preds = %31
  %41 = landingpad { ptr, i32 }
          cleanup
  %42 = extractvalue { ptr, i32 } %41, 0
  store ptr %42, ptr %13, align 8
  %43 = extractvalue { ptr, i32 } %41, 1
  store i32 %43, ptr %14, align 4
  call void @__cxa_free_exception(ptr %34) #13
  br label %44

44:                                               ; preds = %40, %36
  call void @_ZNSt7__cxx1112basic_stringIcSt11char_traitsIcESaIcEED1Ev(ptr noundef nonnull align 8 dereferenceable(32) %11) #13
  br label %59

45:                                               ; No predecessors!
  br label %46

46:                                               ; preds = %45, %19
  br label %47

47:                                               ; preds = %46
  %48 = load i64, ptr %10, align 8
  %49 = icmp eq i64 %48, -1
  br i1 %49, label %50, label %53

50:                                               ; preds = %47
  %51 = getelementptr inbounds %"struct.faiss::AdditiveQuantizer", ptr %18, i32 0, i32 1
  %52 = load i64, ptr %51, align 8
  store i64 %52, ptr %10, align 8
  br label %53

53:                                               ; preds = %50, %47
  %54 = load i64, ptr %9, align 8
  %55 = icmp ugt i64 %54, 1000
  br i1 %55, label %56, label %57

56:                                               ; preds = %53
  call void (ptr, i32, ptr, ...) @__kmpc_fork_call(ptr @2, i32 5, ptr @_ZNK5faiss17AdditiveQuantizer15decode_unpackedEPKiPfml.omp_outlined, ptr %9, ptr %7, ptr %10, ptr %8, ptr %18)
  br label %58

57:                                               ; preds = %53
  call void @__kmpc_serialized_parallel(ptr @2, i32 %17)
  store i32 %17, ptr %15, align 4
  store i32 0, ptr %16, align 4
  call void @_ZNK5faiss17AdditiveQuantizer15decode_unpackedEPKiPfml.omp_outlined(ptr %15, ptr %16, ptr %9, ptr %7, ptr %10, ptr %8, ptr %18) #13
  call void @__kmpc_end_serialized_parallel(ptr @2, i32 %17)
  br label %58

58:                                               ; preds = %57, %56
  ret void

59:                                               ; preds = %44
  %60 = load ptr, ptr %13, align 8
  %61 = load i32, ptr %14, align 4
  %62 = insertvalue { ptr, i32 } poison, ptr %60, 0
  %63 = insertvalue { ptr, i32 } %62, i32 %61, 1
  resume { ptr, i32 } %63

64:                                               ; preds = %35
  unreachable
}