; Function Attrs: mustprogress uwtable
define void @_ZNK5faiss17AdditiveQuantizer15decode_unpackedEPKiPfml(ptr noundef nonnull align 8 dereferenceable(308) %0, ptr noundef %1, ptr noundef %2, i64 noundef %3, i64 noundef %4) unnamed_addr #0 align 2 personality ptr @__gxx_personality_v0 {
  %6 = alloca ptr, align 8
  %7 = alloca ptr, align 8
  %8 = alloca i64, align 8
  %9 = alloca i64, align 8
  %10 = alloca %"class.std::__cxx11::basic_string", align 8
  %11 = alloca i32, align 4
  %12 = tail call i32 @__kmpc_global_thread_num(ptr nonnull @2)
  store ptr %1, ptr %6, align 8
  store ptr %2, ptr %7, align 8
  store i64 %3, ptr %8, align 8
  store i64 %4, ptr %9, align 8
  %13 = getelementptr inbounds i8, ptr %0, i64 130
  %14 = load i8, ptr %13, align 2
  %15 = and i8 %14, 1
  %.not = icmp eq i8 %15, 0
  br i1 %.not, label %16, label %32

16:                                               ; preds = %5
  call void @_ZNSt7__cxx1112basic_stringIcSt11char_traitsIcESaIcEEC1Ev(ptr noundef nonnull align 8 dereferenceable(32) %10) #15
  %17 = call i32 (ptr, i64, ptr, ...) @snprintf(ptr noundef null, i64 noundef 0, ptr noundef nonnull @.str.7, ptr noundef nonnull @.str.8) #15
  %18 = add nsw i32 %17, 1
  %19 = sext i32 %18 to i64
  invoke void @_ZNSt7__cxx1112basic_stringIcSt11char_traitsIcESaIcEE6resizeEm(ptr noundef nonnull align 8 dereferenceable(32) %10, i64 noundef %19)
          to label %20 unwind label %27

20:                                               ; preds = %16
  %21 = invoke noundef nonnull align 1 dereferenceable(1) ptr @_ZNSt7__cxx1112basic_stringIcSt11char_traitsIcESaIcEEixEm(ptr noundef nonnull align 8 dereferenceable(32) %10, i64 noundef 0)
          to label %22 unwind label %27

22:                                               ; preds = %20
  %23 = call noundef i64 @_ZNKSt7__cxx1112basic_stringIcSt11char_traitsIcESaIcEE4sizeEv(ptr noundef nonnull align 8 dereferenceable(32) %10) #15
  %24 = call i32 (ptr, i64, ptr, ...) @snprintf(ptr noundef nonnull %21, i64 noundef %23, ptr noundef nonnull @.str.7, ptr noundef nonnull @.str.8) #15
  %25 = call ptr @__cxa_allocate_exception(i64 40) #15
  invoke void @_ZN5faiss14FaissExceptionC1ERKNSt7__cxx1112basic_stringIcSt11char_traitsIcESaIcEEEPKcSA_i(ptr noundef nonnull align 8 dereferenceable(40) %25, ptr noundef nonnull align 8 dereferenceable(32) %10, ptr noundef nonnull @__PRETTY_FUNCTION__._ZNK5faiss17AdditiveQuantizer15decode_unpackedEPKiPfml, ptr noundef nonnull @.str.3, i32 noundef 286)
          to label %26 unwind label %29

26:                                               ; preds = %22
  invoke void @__cxa_throw(ptr nonnull %25, ptr nonnull @_ZTIN5faiss14FaissExceptionE, ptr nonnull @_ZN5faiss14FaissExceptionD2Ev) #20
          to label %42 unwind label %27

27:                                               ; preds = %26, %20, %16
  %28 = landingpad { ptr, i32 }
          cleanup
  br label %31

29:                                               ; preds = %22
  %30 = landingpad { ptr, i32 }
          cleanup
  call void @__cxa_free_exception(ptr %25) #15
  br label %31

31:                                               ; preds = %29, %27
  %.pn = phi { ptr, i32 } [ %28, %27 ], [ %30, %29 ]
  call void @_ZNSt7__cxx1112basic_stringIcSt11char_traitsIcESaIcEED1Ev(ptr noundef nonnull align 8 dereferenceable(32) %10) #15
  resume { ptr, i32 } %.pn

32:                                               ; preds = %5
  %33 = icmp eq i64 %4, -1
  br i1 %33, label %34, label %37

34:                                               ; preds = %32
  %35 = getelementptr inbounds i8, ptr %0, i64 24
  %36 = load i64, ptr %35, align 8
  store i64 %36, ptr %9, align 8
  br label %37

37:                                               ; preds = %34, %32
  %38 = icmp ugt i64 %3, 1000
  br i1 %38, label %39, label %40

39:                                               ; preds = %37
  call void (ptr, i32, ptr, ...) @__kmpc_fork_call(ptr nonnull @2, i32 5, ptr nonnull @_ZNK5faiss17AdditiveQuantizer15decode_unpackedEPKiPfml.omp_outlined, ptr nonnull %8, ptr nonnull %6, ptr nonnull %9, ptr nonnull %7, ptr nonnull %0)
  br label %41

40:                                               ; preds = %37
  tail call void @__kmpc_serialized_parallel(ptr nonnull @2, i32 %12)
  store i32 %12, ptr %11, align 4
  call void @_ZNK5faiss17AdditiveQuantizer15decode_unpackedEPKiPfml.omp_outlined(ptr nonnull %11, ptr nonnull poison, ptr %8, ptr %6, ptr %9, ptr %7, ptr nonnull %0) #15
  tail call void @__kmpc_end_serialized_parallel(ptr nonnull @2, i32 %12)
  br label %41

41:                                               ; preds = %40, %39
  ret void

42:                                               ; preds = %26
  unreachable
}